	.syntax unified
	.cpu cortex-m3
	.fpu softvfp
	.eabi_attribute 20, 1
	.eabi_attribute 21, 1
	.eabi_attribute 23, 3
	.eabi_attribute 24, 1
	.eabi_attribute 25, 1
	.eabi_attribute 26, 1
	.eabi_attribute 30, 1
	.eabi_attribute 18, 4
	.thumb
	.file	"vfprintf.c"
	.text
.Ltext0:
	.cfi_sections	.debug_frame
	.align	2
	.global	vfprintf
	.thumb
	.thumb_func
	.type	vfprintf, %function
vfprintf:
.LFB3:
	.file 1 "vfprintf.c"
	.loc 1 87 0
	.cfi_startproc
	@ args = 0, pretend = 0, frame = 40
	@ frame_needed = 0, uses_anonymous_args = 0
.LVL0:
	push	{r4, r5, r6, r7, r8, r9, sl, fp, lr}
.LCFI0:
	.cfi_def_cfa_offset 36
	.cfi_offset 14, -4
	.cfi_offset 11, -8
	.cfi_offset 10, -12
	.cfi_offset 9, -16
	.cfi_offset 8, -20
	.cfi_offset 7, -24
	.cfi_offset 6, -28
	.cfi_offset 5, -32
	.cfi_offset 4, -36
	sub	sp, sp, #44
.LCFI1:
	.cfi_def_cfa_offset 80
	mov	r7, r0
	str	r2, [sp, #4]
.LVL1:
	.loc 1 106 0
	mov	r2, r1
.LVL2:
	mov	r5, r1
	.loc 1 102 0
	mov	r6, #0
	.loc 1 103 0
	mov	r8, r6
	.loc 1 104 0
	mov	r9, r6
	.loc 1 108 0
	mov	r4, r6
	.loc 1 267 0
	mov	fp, r6
	.loc 1 257 0
	movw	r3, #:lower16:.LANCHOR0
	movt	r3, #:upper16:.LANCHOR0
	str	r3, [sp, #16]
	add	r3, r3, #32
	str	r3, [sp, #20]
.LBB4:
.LBB5:
	.loc 1 60 0
	movw	sl, #8720
	movt	sl, 1091
.LBE5:
.LBE4:
	.loc 1 108 0
	b	.L34
.LVL3:
.L26:
	.loc 1 109 0
	cbnz	r4, .L3
	.loc 1 110 0
	cmp	r3, #37
	.loc 1 125 0
	it	ne
	addne	r6, r6, #1
.LVL4:
	.loc 1 110 0
	bne	.L34
.LVL5:
	.loc 1 111 0
	mov	r8, fp
	.loc 1 112 0
	mov	r4, #1
	.loc 1 114 0
	cmp	r6, #0
	beq	.L34
	.loc 1 115 0
	ldr	r3, [r7, #4]
	ldr	r0, [r7, #0]
	ldr	r3, [r3, #0]
	mov	r1, r2
.LVL6:
	mov	r2, r6
.LVL7:
	blx	r3
.LVL8:
	.loc 1 116 0
	mov	r2, r5
.LVL9:
	.loc 1 117 0
	add	r9, r9, r6
.LVL10:
	.loc 1 118 0
	mov	r6, fp
	.loc 1 111 0
	mov	r8, fp
	.loc 1 112 0
	mov	r4, #1
	b	.L34
.LVL11:
.L3:
	.loc 1 134 0
	sub	r0, r3, #48
	cmp	r0, #9
	bhi	.L6
	.loc 1 135 0
	tst	r4, #2
	bne	.L7
	.loc 1 136 0
	orr	r4, r4, #2
.LVL12:
	.loc 1 137 0
	cmp	r3, #48
	.loc 1 138 0
	it	eq
	orreq	r4, r4, #4
.LVL13:
	.loc 1 137 0
	beq	.L34
.L7:
.LVL14:
	.loc 1 143 0
	add	r8, r8, r8, lsl #2
.LVL15:
	sub	r3, r3, #48
	add	r8, r3, r8, lsl #1
.LVL16:
	.loc 1 144 0
	b	.L34
.L6:
	.loc 1 148 0
	cmp	r3, #45
	.loc 1 149 0
	it	eq
	orreq	r4, r4, #8
.LVL17:
	.loc 1 148 0
	beq	.L34
	.loc 1 156 0
	cmp	r3, #43
	beq	.L34
	.loc 1 159 0
	cmp	r3, #99
	bne	.L9
.LVL18:
	.loc 1 160 0
	ldr	r2, [sp, #4]
.LVL19:
	ldr	r1, [r2, #0]
.LVL20:
	add	r2, r2, #4
	str	r2, [sp, #4]
	.loc 1 161 0
	b	.L10
.LVL21:
.L9:
	.loc 1 164 0
	cmp	r3, #100
	bne	.L11
	.loc 1 165 0
	ldr	r3, [sp, #4]
.LVL22:
	add	r1, r3, #4
.LVL23:
	ldr	r3, [r3, #0]
.LVL24:
	.loc 1 166 0
	cmp	r3, #0
	.loc 1 167 0
	itttt	lt
	movlt	r2, #45
	strblt	r2, [sp, #28]
	.loc 1 168 0
	rsblt	r3, r3, #0
.LVL25:
	.loc 1 169 0
	orrlt	r4, r4, #16
.LVL26:
	.loc 1 170 0
	it	lt
	addlt	r8, r8, #-1
.LVL27:
.L12:
	.loc 1 177 0
	mov	r6, #12
.LVL28:
.LBB9:
.LBB6:
	.loc 1 59 0
	mov	lr, #858993459
	.loc 1 63 0
	mvn	r0, #9
.LVL29:
.LBE6:
.LBE9:
	.loc 1 177 0
	cbnz	r3, .L13
.LVL30:
	.loc 1 178 0
	mov	r3, #48
.LVL31:
	strb	r3, [sp, #39]
	mov	r6, #11
	b	.L14
.LVL32:
.L13:
	.loc 1 181 0
	mov	r2, r3
.LVL33:
.LBB10:
.LBB7:
	.loc 1 59 0
	mul	ip, lr, r3
	add	ip, ip, r3, lsr #3
	lsr	ip, ip, #29
	.loc 1 60 0
	lsl	ip, ip, #2
	asr	ip, sl, ip
	and	ip, ip, #7
	rsb	r3, ip, r3
.LVL34:
	add	ip, r3, r3, lsl #1
	add	ip, ip, ip, lsl #4
	add	ip, ip, ip, lsl #8
	add	ip, ip, ip, lsl #16
	add	r3, r3, ip, lsl #2
.LVL35:
	.loc 1 62 0
	asr	r3, r3, #1
.LVL36:
.LBE7:
.LBE10:
	.loc 1 182 0
	add	r6, r6, #-1
.LVL37:
.LBB11:
.LBB8:
	.loc 1 63 0
	mla	r2, r0, r3, r2
.LVL38:
.LBE8:
.LBE11:
	.loc 1 182 0
	add	r2, r2, #48
	add	ip, sp, #28
	strb	r2, [r6, ip]
	.loc 1 180 0
	cmp	r3, #0
	bne	.L13
.LVL39:
.L14:
	.loc 1 186 0
	add	r2, sp, #28
	adds	r2, r2, r6
	str	r2, [sp, #12]
.LVL40:
	.loc 1 187 0
	rsb	r6, r6, #12
.LVL41:
	.loc 1 188 0
	str	r1, [sp, #4]
	b	.L15
.LVL42:
.L11:
	.loc 1 191 0
	cmp	r3, #120
	bne	.L16
.LVL43:
	.loc 1 192 0
	ldr	r3, [sp, #4]
	ldr	r1, [r3, #0]
.LVL44:
	add	r3, r3, #4
	str	r3, [sp, #4]
.LVL45:
.L17:
	.loc 1 196 0
	add	r0, sp, #28
.LVL46:
	bl	uint2hex
.LVL47:
	mov	r6, r0
.LVL48:
	.loc 1 197 0
	add	r2, sp, #28
	str	r2, [sp, #12]
.LVL49:
	.loc 1 198 0
	b	.L15
.LVL50:
.L16:
	.loc 1 201 0
	cmp	r3, #115
	bne	.L18
	.loc 1 202 0
	ldr	r3, [sp, #4]
	add	r3, r3, #4
	str	r3, [sp, #8]
.LVL51:
	ldr	r2, [sp, #4]
.LVL52:
	ldr	r2, [r2, #0]
	str	r2, [sp, #12]
.LVL53:
	.loc 1 203 0
	mov	r0, r2
	bl	strlen
.LVL54:
	mov	r6, r0
.LVL55:
	.loc 1 202 0
	ldr	r3, [sp, #8]
	str	r3, [sp, #4]
	.loc 1 204 0
	b	.L15
.LVL56:
.L18:
	.loc 1 208 0
	cmp	r3, #117
	bne	.L19
	.loc 1 209 0
	ldr	r2, [sp, #4]
.LVL57:
	add	r1, r2, #4
.LVL58:
	ldr	r3, [r2, #0]
.LVL59:
	.loc 1 210 0
	b	.L12
.LVL60:
.L19:
	.loc 1 215 0
	cmp	r3, #112
	.loc 1 224 0
	itt	ne
	movne	r8, fp
.LVL61:
	.loc 1 223 0
	movne	r4, fp
	.loc 1 215 0
	bne	.L10
.LVL62:
	.loc 1 216 0
	ldr	r3, [sp, #4]
	ldr	r1, [r3, #0]
.LVL63:
	.loc 1 218 0
	orr	r4, r4, #4
.LVL64:
	.loc 1 216 0
	add	r3, r3, #4
	str	r3, [sp, #4]
	.loc 1 217 0
	mov	r8, #8
	.loc 1 219 0
	b	.L17
.LVL65:
.L10:
	.loc 1 227 0
	add	r2, sp, #28
	str	r2, [sp, #12]
.LVL66:
	.loc 1 228 0
	strb	r1, [sp, #28]
.LVL67:
	.loc 1 229 0
	mov	r6, #1
.LVL68:
.L15:
	.loc 1 233 0
	cmp	r8, r6
	ite	le
	movle	r3, #0
	movgt	r3, #1
	str	r3, [sp, #8]
	tst	r4, #8
	ite	ne
	movne	r3, #0
	andeq	r3, r3, #1
	cbz	r3, .L20
	.loc 1 237 0
	tst	r4, #4
	beq	.L21
	.loc 1 238 0
	tst	r4, #16
	beq	.L22
	.loc 1 239 0
	bic	r4, r4, #16
.LVL69:
	.loc 1 240 0
	ldr	r3, [r7, #4]
	ldr	r0, [r7, #0]
	ldr	r3, [r3, #0]
	add	r1, sp, #28
	mov	r2, #1
	blx	r3
.L22:
	.loc 1 242 0
	ldr	r3, [r7, #4]
	ldr	r0, [r7, #0]
	rsb	r2, r6, r8
	ldr	r3, [r3, #0]
	ldr	r1, [sp, #16]
	blx	r3
	b	.L23
.L21:
	.loc 1 244 0
	ldr	r3, [r7, #4]
	ldr	r0, [r7, #0]
	rsb	r2, r6, r8
	ldr	r3, [r3, #0]
	ldr	r1, [sp, #20]
	blx	r3
.L23:
	.loc 1 246 0
	rsb	r3, r6, r8
	add	r9, r9, r3
.LVL70:
.L20:
	.loc 1 249 0
	tst	r4, #16
	beq	.L24
	.loc 1 250 0
	ldr	r3, [r7, #4]
	ldr	r0, [r7, #0]
	ldr	r3, [r3, #0]
	add	r1, sp, #28
	mov	r2, #1
	blx	r3
.L24:
	.loc 1 251 0
	ldr	r3, [r7, #4]
	ldr	r0, [r7, #0]
	ldr	r3, [r3, #0]
	ldr	r1, [sp, #12]
	mov	r2, r6
	blx	r3
	.loc 1 252 0
	add	r9, r9, r6
.LVL71:
	.loc 1 256 0
	ldr	r2, [sp, #8]
	ands	r2, r2, r4, lsr #3
	beq	.L25
	.loc 1 257 0
	rsb	r6, r6, r8
.LVL72:
	ldr	r3, [r7, #4]
	ldr	r0, [r7, #0]
	ldr	r3, [r3, #0]
	ldr	r1, [sp, #20]
	mov	r2, r6
	blx	r3
	.loc 1 258 0
	add	r9, r9, r6
.LVL73:
.L25:
	.loc 1 266 0
	mov	r2, r5
.LVL74:
	.loc 1 267 0
	mov	r6, fp
	.loc 1 263 0
	mov	r8, fp
	.loc 1 262 0
	mov	r4, fp
.LVL75:
.L34:
	.loc 1 108 0 discriminator 1
	ldrb	r3, [r5], #1	@ zero_extendqisi2
	mov	r1, r3
.LVL76:
	cmp	r3, #0
	bne	.L26
	.loc 1 272 0
	cbz	r6, .L27
	.loc 1 273 0
	ldr	r3, [r7, #4]
.LVL77:
	ldr	r0, [r7, #0]
	ldr	r3, [r3, #0]
	mov	r1, r2
.LVL78:
	mov	r2, r6
.LVL79:
	blx	r3
.LVL80:
	.loc 1 274 0
	add	r9, r9, r6
.LVL81:
.L27:
	.loc 1 279 0
	mov	r0, r9
	add	sp, sp, #44
	pop	{r4, r5, r6, r7, r8, r9, sl, fp, pc}
	.cfi_endproc
.LFE3:
	.size	vfprintf, .-vfprintf
	.section	.rodata
	.align	2
	.set	.LANCHOR0,. + 0
	.type	zeros, %object
	.size	zeros, 32
zeros:
	.byte	48
	.byte	48
	.byte	48
	.byte	48
	.byte	48
	.byte	48
	.byte	48
	.byte	48
	.byte	48
	.byte	48
	.byte	48
	.byte	48
	.byte	48
	.byte	48
	.byte	48
	.byte	48
	.byte	48
	.byte	48
	.byte	48
	.byte	48
	.byte	48
	.byte	48
	.byte	48
	.byte	48
	.byte	48
	.byte	48
	.byte	48
	.byte	48
	.byte	48
	.byte	48
	.byte	48
	.byte	48
	.type	blanks, %object
	.size	blanks, 64
blanks:
	.byte	32
	.byte	32
	.byte	32
	.byte	32
	.byte	32
	.byte	32
	.byte	32
	.byte	32
	.byte	32
	.byte	32
	.byte	32
	.byte	32
	.byte	32
	.byte	32
	.byte	32
	.byte	32
	.byte	32
	.byte	32
	.byte	32
	.byte	32
	.byte	32
	.byte	32
	.byte	32
	.byte	32
	.byte	32
	.byte	32
	.byte	32
	.byte	32
	.byte	32
	.byte	32
	.byte	32
	.byte	32
	.byte	32
	.byte	32
	.byte	32
	.byte	32
	.byte	32
	.byte	32
	.byte	32
	.byte	32
	.byte	32
	.byte	32
	.byte	32
	.byte	32
	.byte	32
	.byte	32
	.byte	32
	.byte	32
	.byte	32
	.byte	32
	.byte	32
	.byte	32
	.byte	32
	.byte	32
	.byte	32
	.byte	32
	.byte	32
	.byte	32
	.byte	32
	.byte	32
	.byte	32
	.byte	32
	.byte	32
	.byte	32
	.text
.Letext0:
	.file 2 "/opt/arm-none-eabi/lib/gcc/arm-none-eabi/4.6.2/include/stdarg.h"
	.file 3 "/home/bob/devel/uboot/include/stdio.h"
	.file 4 "<built-in>"
	.file 5 "/home/bob/devel/uboot/include/sys/file.h"
	.file 6 "/home/bob/devel/uboot/include/stdlib.h"