	.syntax unified
	.cpu cortex-m3
	.fpu softvfp
	.eabi_attribute 20, 1
	.eabi_attribute 21, 1
	.eabi_attribute 23, 3
	.eabi_attribute 24, 1
	.eabi_attribute 25, 1
	.eabi_attribute 26, 1
	.eabi_attribute 30, 1
	.eabi_attribute 18, 4
	.thumb
	.file	"stm32f-gpio.c"
	.text
.Ltext0:
	.cfi_sections	.debug_frame
	.align	2
	.global	stm32f_gpio_clock_en
	.thumb
	.thumb_func
	.type	stm32f_gpio_clock_en, %function
stm32f_gpio_clock_en:
.LFB0:
	.file 1 "stm32f-gpio.c"
	.loc 1 25 0
	.cfi_startproc
	@ args = 0, pretend = 0, frame = 0
	@ frame_needed = 0, uses_anonymous_args = 0
	@ link register save eliminated.
.LVL0:
	.loc 1 29 0
	mov	r3, #14336
	movt	r3, 16386
	ldr	r2, [r3, #48]
	mov	r1, #1
	lsl	r0, r1, r0
.LVL1:
	orrs	r0, r0, r2
	str	r0, [r3, #48]
	.loc 1 30 0
	bx	lr
	.cfi_endproc
.LFE0:
	.size	stm32f_gpio_clock_en, .-stm32f_gpio_clock_en
	.align	2
	.global	stm32f_gpio_mode
	.thumb
	.thumb_func
	.type	stm32f_gpio_mode, %function
stm32f_gpio_mode:
.LFB1:
	.loc 1 34 0
	.cfi_startproc
	@ args = 0, pretend = 0, frame = 0
	@ frame_needed = 0, uses_anonymous_args = 0
	@ link register save eliminated.
.LVL2:
	push	{r4, r5, r6, r7}
.LCFI0:
	.cfi_def_cfa_offset 16
	.cfi_offset 7, -4
	.cfi_offset 6, -8
	.cfi_offset 5, -12
	.cfi_offset 4, -16
	.loc 1 39 0
	ldr	r4, [r0, #0]
.LVL3:
	.loc 1 40 0
	lsl	r3, r1, #1
.LVL4:
	mov	r7, #3
	lsl	r7, r7, r3
	mvn	r6, r7
	ands	r4, r4, r6
.LVL5:
	.loc 1 41 0
	and	r5, r2, #31
	cmp	r5, #2
	.loc 1 49 0
	ittt	eq
	moveq	r5, #2
	lsleq	r5, r5, r3
	orreq	r4, r4, r5
.LVL6:
	.loc 1 41 0
	beq	.L3
	cmp	r5, #3
	.loc 1 52 0
	it	eq
	orreq	r4, r4, r7
	.loc 1 41 0
	beq	.L3
	cmp	r5, #1
	.loc 1 46 0
	itt	eq
	lsleq	r5, r5, r3
	orreq	r4, r4, r5
.L3:
.LVL7:
	.loc 1 55 0
	str	r4, [r0, #0]
	.loc 1 58 0
	ldr	r4, [r0, #8]
.LVL8:
	.loc 1 59 0
	ands	r6, r6, r4
.LVL9:
	.loc 1 60 0
	and	r4, r2, #3
	lsl	r4, r4, r3
	orrs	r6, r6, r4
.LVL10:
	.loc 1 61 0
	str	r6, [r0, #8]
	.loc 1 64 0
	ldr	r5, [r0, #4]
.LVL11:
	.loc 1 65 0
	mov	r4, #1
	lsl	r1, r4, r1
.LVL12:
	mvn	r4, r1
	ands	r5, r5, r4
.LVL13:
	.loc 1 66 0
	tst	r2, #4
	.loc 1 67 0
	it	ne
	orrne	r5, r5, r1
.LVL14:
	.loc 1 70 0
	str	r5, [r0, #4]
	.loc 1 73 0
	ldr	r1, [r0, #12]
.LVL15:
	.loc 1 74 0
	ands	r1, r1, r4
.LVL16:
	.loc 1 75 0
	tst	r2, #8
	.loc 1 76 0
	ittt	ne
	movne	r2, #1
.LVL17:
	lslne	r3, r2, r3
	orrne	r1, r1, r3
.LVL18:
	.loc 1 75 0
	bne	.L9
	.loc 1 77 0
	tst	r2, #16
	.loc 1 78 0
	ittt	ne
	movne	r2, #2
	lslne	r3, r2, r3
	orrne	r1, r1, r3
.LVL19:
.L9:
	.loc 1 79 0
	str	r1, [r0, #12]
	.loc 1 81 0
	pop	{r4, r5, r6, r7}
	bx	lr
	.cfi_endproc
.LFE1:
	.size	stm32f_gpio_mode, .-stm32f_gpio_mode
	.align	2
	.global	stm32f_gpio_af
	.thumb
	.thumb_func
	.type	stm32f_gpio_af, %function
stm32f_gpio_af:
.LFB2:
	.loc 1 84 0
	.cfi_startproc
	@ args = 0, pretend = 0, frame = 0
	@ frame_needed = 0, uses_anonymous_args = 0
	@ link register save eliminated.
.LVL20:
	push	{r4}
.LCFI1:
	.cfi_def_cfa_offset 4
	.cfi_offset 4, -4
	.loc 1 87 0
	cmp	r1, #7
	bgt	.L11
	.loc 1 88 0
	ldr	r4, [r0, #32]
.LVL21:
	.loc 1 89 0
	lsl	r1, r1, #2
.LVL22:
	mov	r3, #15
	lsl	r3, r3, r1
	bic	r3, r4, r3
.LVL23:
	.loc 1 90 0
	lsl	r1, r2, r1
	orrs	r1, r1, r3
.LVL24:
	.loc 1 91 0
	str	r1, [r0, #32]
	b	.L10
.LVL25:
.L11:
	.loc 1 93 0
	ldr	r4, [r0, #36]
.LVL26:
	.loc 1 94 0
	sub	r1, r1, #8
.LVL27:
	lsl	r1, r1, #2
.LVL28:
	mov	r3, #15
	lsl	r3, r3, r1
	bic	r3, r4, r3
.LVL29:
	.loc 1 95 0
	lsl	r2, r2, r1
.LVL30:
	orr	r1, r3, r2
.LVL31:
	.loc 1 96 0
	str	r1, [r0, #36]
.L10:
	.loc 1 98 0
	pop	{r4}
	bx	lr
	.cfi_endproc
.LFE2:
	.size	stm32f_gpio_af, .-stm32f_gpio_af
.Letext0:
	.file 2 "/home/bob/devel/uboot/include/stdint.h"
	.file 3 "/home/bob/devel/uboot/include/stm32f/stm32f-gpio.h"
	.file 4 "/home/bob/devel/uboot/include/stm32f/stm32f-rcc.h"
	.file 5 "/home/bob/devel/uboot/include/arch/stm32f207.h"
	.file 6 "/home/bob/devel/uboot/include/sys/stm32f.h"